target datalayout = "e-m:e-p270:32:32-p271:32:32-p272:64:64-i64:64-i128:128-f80:128-n8:16:32:64-S128"
target triple = "x86_64-unknown-linux-gnu"

%struct.CallBackContext = type { i8, %"class.std::vector" }
%"class.std::vector" = type { %"struct.std::_Vector_base" }
%"struct.std::_Vector_base" = type { %"struct.std::_Vector_base<MatchRecord, std::allocator<MatchRecord>>::_Vector_impl" }
%"struct.std::_Vector_base<MatchRecord, std::allocator<MatchRecord>>::_Vector_impl" = type { %"struct.std::_Vector_base<MatchRecord, std::allocator<MatchRecord>>::_Vector_impl_data" }
%"struct.std::_Vector_base<MatchRecord, std::allocator<MatchRecord>>::_Vector_impl_data" = type { ptr, ptr, ptr }
%struct.MatchRecord = type <{ i64, i32, [4 x i8] }>

@.str.53 = private unnamed_addr constant [26 x i8] c"vector::_M_realloc_insert\00", align 1

; Function Attrs: mustprogress uwtable
define linkonce_odr hidden void @_ZNSt6vectorI11MatchRecordSaIS0_EE17_M_realloc_insertIJS0_EEEvN9__gnu_cxx17__normal_iteratorIPS0_S2_EEDpOT_(ptr noundef nonnull align 8 dereferenceable(24) %this, ptr %__position.coerce, ptr noundef nonnull align 8 dereferenceable(12) %__args) local_unnamed_addr #8 comdat align 2 personality ptr @__gxx_personality_v0 {
entry:
  %_M_finish.i.i = getelementptr inbounds %"struct.std::_Vector_base<MatchRecord, std::allocator<MatchRecord>>::_Vector_impl_data", ptr %this, i64 0, i32 1
  %0 = load ptr, ptr %_M_finish.i.i, align 8
  %1 = load ptr, ptr %this, align 8
  %sub.ptr.lhs.cast.i.i = ptrtoint ptr %0 to i64
  %sub.ptr.rhs.cast.i.i = ptrtoint ptr %1 to i64
  %sub.ptr.sub.i.i = sub i64 %sub.ptr.lhs.cast.i.i, %sub.ptr.rhs.cast.i.i
  %cmp.i = icmp eq i64 %sub.ptr.sub.i.i, 9223372036854775792
  br i1 %cmp.i, label %if.then.i, label %_ZNKSt6vectorI11MatchRecordSaIS0_EE12_M_check_lenEmPKc.exit

if.then.i:                                        ; preds = %entry
  tail call void @_ZSt20__throw_length_errorPKc(ptr noundef nonnull @.str.53) #28
  unreachable

_ZNKSt6vectorI11MatchRecordSaIS0_EE12_M_check_lenEmPKc.exit: ; preds = %entry
  %sub.ptr.div.i.i = ashr exact i64 %sub.ptr.sub.i.i, 4
  %.sroa.speculated.i = tail call i64 @llvm.umax.i64(i64 %sub.ptr.div.i.i, i64 1)
  %add.i = add i64 %.sroa.speculated.i, %sub.ptr.div.i.i
  %cmp7.i = icmp ult i64 %add.i, %sub.ptr.div.i.i
  %cmp9.i = icmp ugt i64 %add.i, 576460752303423487
  %or.cond.i = or i1 %cmp7.i, %cmp9.i
  %cond.i = select i1 %or.cond.i, i64 576460752303423487, i64 %add.i
  %sub.ptr.lhs.cast.i = ptrtoint ptr %__position.coerce to i64
  %sub.ptr.sub.i = sub i64 %sub.ptr.lhs.cast.i, %sub.ptr.rhs.cast.i.i
  %sub.ptr.div.i = ashr exact i64 %sub.ptr.sub.i, 4
  %cmp.not.i = icmp eq i64 %cond.i, 0
  br i1 %cmp.not.i, label %_ZNSt12_Vector_baseI11MatchRecordSaIS0_EE11_M_allocateEm.exit, label %_ZNSt16allocator_traitsISaI11MatchRecordEE8allocateERS1_m.exit.i

_ZNSt16allocator_traitsISaI11MatchRecordEE8allocateERS1_m.exit.i: ; preds = %_ZNKSt6vectorI11MatchRecordSaIS0_EE12_M_check_lenEmPKc.exit
  %mul.i.i.i = shl nuw nsw i64 %cond.i, 4
  %call5.i.i.i = tail call noalias noundef nonnull ptr @_Znwm(i64 noundef %mul.i.i.i) #25
  br label %_ZNSt12_Vector_baseI11MatchRecordSaIS0_EE11_M_allocateEm.exit

_ZNSt12_Vector_baseI11MatchRecordSaIS0_EE11_M_allocateEm.exit: ; preds = %_ZNSt16allocator_traitsISaI11MatchRecordEE8allocateERS1_m.exit.i, %_ZNKSt6vectorI11MatchRecordSaIS0_EE12_M_check_lenEmPKc.exit
  %cond.i31 = phi ptr [ %call5.i.i.i, %_ZNSt16allocator_traitsISaI11MatchRecordEE8allocateERS1_m.exit.i ], [ null, %_ZNKSt6vectorI11MatchRecordSaIS0_EE12_M_check_lenEmPKc.exit ]
  %add.ptr = getelementptr inbounds %struct.MatchRecord, ptr %cond.i31, i64 %sub.ptr.div.i
  tail call void @llvm.memcpy.p0.p0.i64(ptr noundef nonnull align 8 dereferenceable(16) %add.ptr, ptr noundef nonnull align 8 dereferenceable(16) %__args, i64 16, i1 false)
  %cmp.not6.i.i.i.i = icmp eq ptr %1, %__position.coerce
  br i1 %cmp.not6.i.i.i.i, label %_ZNSt6vectorI11MatchRecordSaIS0_EE11_S_relocateEPS0_S3_S3_RS1_.exit, label %for.body.i.i.i.i

for.body.i.i.i.i:                                 ; preds = %for.body.i.i.i.i, %_ZNSt12_Vector_baseI11MatchRecordSaIS0_EE11_M_allocateEm.exit
  %__cur.08.i.i.i.i = phi ptr [ %incdec.ptr1.i.i.i.i, %for.body.i.i.i.i ], [ %cond.i31, %_ZNSt12_Vector_baseI11MatchRecordSaIS0_EE11_M_allocateEm.exit ]
  %__first.addr.07.i.i.i.i = phi ptr [ %incdec.ptr.i.i.i.i, %for.body.i.i.i.i ], [ %1, %_ZNSt12_Vector_baseI11MatchRecordSaIS0_EE11_M_allocateEm.exit ]
  tail call void @llvm.memcpy.p0.p0.i64(ptr noundef nonnull align 8 dereferenceable(16) %__cur.08.i.i.i.i, ptr noundef nonnull align 8 dereferenceable(16) %__first.addr.07.i.i.i.i, i64 16, i1 false), !alias.scope !35
  %incdec.ptr.i.i.i.i = getelementptr inbounds %struct.MatchRecord, ptr %__first.addr.07.i.i.i.i, i64 1
  %incdec.ptr1.i.i.i.i = getelementptr inbounds %struct.MatchRecord, ptr %__cur.08.i.i.i.i, i64 1
  %cmp.not.i.i.i.i = icmp eq ptr %incdec.ptr.i.i.i.i, %__position.coerce
  br i1 %cmp.not.i.i.i.i, label %_ZNSt6vectorI11MatchRecordSaIS0_EE11_S_relocateEPS0_S3_S3_RS1_.exit, label %for.body.i.i.i.i, !llvm.loop !39

_ZNSt6vectorI11MatchRecordSaIS0_EE11_S_relocateEPS0_S3_S3_RS1_.exit: ; preds = %for.body.i.i.i.i, %_ZNSt12_Vector_baseI11MatchRecordSaIS0_EE11_M_allocateEm.exit
  %__cur.0.lcssa.i.i.i.i = phi ptr [ %cond.i31, %_ZNSt12_Vector_baseI11MatchRecordSaIS0_EE11_M_allocateEm.exit ], [ %incdec.ptr1.i.i.i.i, %for.body.i.i.i.i ]
  %incdec.ptr = getelementptr %struct.MatchRecord, ptr %__cur.0.lcssa.i.i.i.i, i64 1
  %cmp.not6.i.i.i.i32 = icmp eq ptr %0, %__position.coerce
  br i1 %cmp.not6.i.i.i.i32, label %_ZNSt6vectorI11MatchRecordSaIS0_EE11_S_relocateEPS0_S3_S3_RS1_.exit40, label %for.body.i.i.i.i33

for.body.i.i.i.i33:                               ; preds = %for.body.i.i.i.i33, %_ZNSt6vectorI11MatchRecordSaIS0_EE11_S_relocateEPS0_S3_S3_RS1_.exit
  %__cur.08.i.i.i.i34 = phi ptr [ %incdec.ptr1.i.i.i.i37, %for.body.i.i.i.i33 ], [ %incdec.ptr, %_ZNSt6vectorI11MatchRecordSaIS0_EE11_S_relocateEPS0_S3_S3_RS1_.exit ]
  %__first.addr.07.i.i.i.i35 = phi ptr [ %incdec.ptr.i.i.i.i36, %for.body.i.i.i.i33 ], [ %__position.coerce, %_ZNSt6vectorI11MatchRecordSaIS0_EE11_S_relocateEPS0_S3_S3_RS1_.exit ]
  tail call void @llvm.memcpy.p0.p0.i64(ptr noundef nonnull align 8 dereferenceable(16) %__cur.08.i.i.i.i34, ptr noundef nonnull align 8 dereferenceable(16) %__first.addr.07.i.i.i.i35, i64 16, i1 false), !alias.scope !41
  %incdec.ptr.i.i.i.i36 = getelementptr inbounds %struct.MatchRecord, ptr %__first.addr.07.i.i.i.i35, i64 1
  %incdec.ptr1.i.i.i.i37 = getelementptr inbounds %struct.MatchRecord, ptr %__cur.08.i.i.i.i34, i64 1
  %cmp.not.i.i.i.i38 = icmp eq ptr %incdec.ptr.i.i.i.i36, %0
  br i1 %cmp.not.i.i.i.i38, label %_ZNSt6vectorI11MatchRecordSaIS0_EE11_S_relocateEPS0_S3_S3_RS1_.exit40, label %for.body.i.i.i.i33, !llvm.loop !39

_ZNSt6vectorI11MatchRecordSaIS0_EE11_S_relocateEPS0_S3_S3_RS1_.exit40: ; preds = %for.body.i.i.i.i33, %_ZNSt6vectorI11MatchRecordSaIS0_EE11_S_relocateEPS0_S3_S3_RS1_.exit
  %__cur.0.lcssa.i.i.i.i39 = phi ptr [ %incdec.ptr, %_ZNSt6vectorI11MatchRecordSaIS0_EE11_S_relocateEPS0_S3_S3_RS1_.exit ], [ %incdec.ptr1.i.i.i.i37, %for.body.i.i.i.i33 ]
  %tobool.not.i = icmp eq ptr %1, null
  br i1 %tobool.not.i, label %_ZNSt12_Vector_baseI11MatchRecordSaIS0_EE13_M_deallocateEPS0_m.exit, label %if.then.i41

if.then.i41:                                      ; preds = %_ZNSt6vectorI11MatchRecordSaIS0_EE11_S_relocateEPS0_S3_S3_RS1_.exit40
  tail call void @_ZdlPv(ptr noundef nonnull %1) #24
  br label %_ZNSt12_Vector_baseI11MatchRecordSaIS0_EE13_M_deallocateEPS0_m.exit

_ZNSt12_Vector_baseI11MatchRecordSaIS0_EE13_M_deallocateEPS0_m.exit: ; preds = %if.then.i41, %_ZNSt6vectorI11MatchRecordSaIS0_EE11_S_relocateEPS0_S3_S3_RS1_.exit40
  %_M_end_of_storage = getelementptr inbounds %"struct.std::_Vector_base<MatchRecord, std::allocator<MatchRecord>>::_Vector_impl_data", ptr %this, i64 0, i32 2
  store ptr %cond.i31, ptr %this, align 8
  store ptr %__cur.0.lcssa.i.i.i.i39, ptr %_M_finish.i.i, align 8
  %add.ptr19 = getelementptr inbounds %struct.MatchRecord, ptr %cond.i31, i64 %cond.i
  store ptr %add.ptr19, ptr %_M_end_of_storage, align 8
  ret void
}

; Function Attrs: mustprogress uwtable
define internal noundef i32 @_ZN12_GLOBAL__N_110record_cb2EjyyjPv(i32 noundef %id, i64 %0, i64 noundef %to, i32 %1, ptr noundef %ctxt) #8 {
entry:
  %ref.tmp = alloca %struct.MatchRecord, align 8
  call void @llvm.lifetime.start.p0(i64 16, ptr nonnull %ref.tmp) #26
  %add = add i64 %to, 1000
  store i64 %add, ptr %ref.tmp, align 8
  %id.i = getelementptr inbounds %struct.MatchRecord, ptr %ref.tmp, i64 0, i32 1
  store i32 %id, ptr %id.i, align 8
  %_M_finish.i.i = getelementptr inbounds %struct.CallBackContext, ptr %ctxt, i64 0, i32 1, i32 0, i32 0, i32 0, i32 1
  %2 = load ptr, ptr %_M_finish.i.i, align 8
  %_M_end_of_storage.i.i = getelementptr inbounds %struct.CallBackContext, ptr %ctxt, i64 0, i32 1, i32 0, i32 0, i32 0, i32 2
  %3 = load ptr, ptr %_M_end_of_storage.i.i, align 8
  %cmp.not.i.i = icmp eq ptr %2, %3
  br i1 %cmp.not.i.i, label %if.else.i.i, label %if.then.i.i

if.then.i.i:                                      ; preds = %entry
  call void @llvm.memcpy.p0.p0.i64(ptr noundef nonnull align 8 dereferenceable(16) %2, ptr noundef nonnull align 8 dereferenceable(16) %ref.tmp, i64 16, i1 false)
  %4 = load ptr, ptr %_M_finish.i.i, align 8
  %incdec.ptr.i.i = getelementptr inbounds %struct.MatchRecord, ptr %4, i64 1
  store ptr %incdec.ptr.i.i, ptr %_M_finish.i.i, align 8
  br label %_ZNSt6vectorI11MatchRecordSaIS0_EE9push_backEOS0_.exit

if.else.i.i:                                      ; preds = %entry
  %matches = getelementptr inbounds %struct.CallBackContext, ptr %ctxt, i64 0, i32 1
  call void @_ZNSt6vectorI11MatchRecordSaIS0_EE17_M_realloc_insertIJS0_EEEvN9__gnu_cxx17__normal_iteratorIPS0_S2_EEDpOT_(ptr noundef nonnull align 8 dereferenceable(24) %matches, ptr %2, ptr noundef nonnull align 8 dereferenceable(12) %ref.tmp)
  br label %_ZNSt6vectorI11MatchRecordSaIS0_EE9push_backEOS0_.exit

_ZNSt6vectorI11MatchRecordSaIS0_EE9push_backEOS0_.exit: ; preds = %if.else.i.i, %if.then.i.i
  call void @llvm.lifetime.end.p0(i64 16, ptr nonnull %ref.tmp) #26
  %5 = load i8, ptr %ctxt, align 8, !range !5, !noundef !6
  %conv = zext nneg i8 %5 to i32
  ret i32 %conv
}