; Function Attrs: mustprogress uwtable
define internal noundef i32 @_ZN12_GLOBAL__N_110record_cb2EjyyjPv(i32 noundef %id, i64 %0, i64 noundef %to, i32 %1, ptr nocapture noundef %ctxt) #8 personality ptr @__gxx_personality_v0 {
entry:
  %add = add i64 %to, 1000
  %_M_finish.i.i = getelementptr inbounds i8, ptr %ctxt, i64 16
  %2 = load ptr, ptr %_M_finish.i.i, align 8
  %_M_end_of_storage.i.i = getelementptr inbounds i8, ptr %ctxt, i64 24
  %3 = load ptr, ptr %_M_end_of_storage.i.i, align 8
  %cmp.not.i.i = icmp eq ptr %2, %3
  br i1 %cmp.not.i.i, label %if.else.i.i, label %if.then.i.i

if.then.i.i:                                      ; preds = %entry
  store i64 %add, ptr %2, align 8
  %ref.tmp.sroa.5.0..sroa_idx = getelementptr inbounds i8, ptr %2, i64 8
  store i32 %id, ptr %ref.tmp.sroa.5.0..sroa_idx, align 8
  %4 = load ptr, ptr %_M_finish.i.i, align 8
  %incdec.ptr.i.i = getelementptr inbounds i8, ptr %4, i64 16
  store ptr %incdec.ptr.i.i, ptr %_M_finish.i.i, align 8
  br label %_ZNSt6vectorI11MatchRecordSaIS0_EE9push_backEOS0_.exit

if.else.i.i:                                      ; preds = %entry
  %matches = getelementptr inbounds i8, ptr %ctxt, i64 8
  %5 = load ptr, ptr %matches, align 8
  %sub.ptr.lhs.cast.i.i.i = ptrtoint ptr %2 to i64
  %sub.ptr.rhs.cast.i.i.i = ptrtoint ptr %5 to i64
  %sub.ptr.sub.i.i.i = sub i64 %sub.ptr.lhs.cast.i.i.i, %sub.ptr.rhs.cast.i.i.i
  %cmp.i.i = icmp eq i64 %sub.ptr.sub.i.i.i, 9223372036854775792
  br i1 %cmp.i.i, label %if.then.i.i2, label %_ZNKSt6vectorI11MatchRecordSaIS0_EE12_M_check_lenEmPKc.exit.i

if.then.i.i2:                                     ; preds = %if.else.i.i
  tail call void @_ZSt20__throw_length_errorPKc(ptr noundef nonnull @.str.53) #29
  unreachable

_ZNKSt6vectorI11MatchRecordSaIS0_EE12_M_check_lenEmPKc.exit.i: ; preds = %if.else.i.i
  %sub.ptr.div.i.i.i = ashr exact i64 %sub.ptr.sub.i.i.i, 4
  %.sroa.speculated.i.i = tail call i64 @llvm.umax.i64(i64 %sub.ptr.div.i.i.i, i64 1)
  %add.i.i = add i64 %.sroa.speculated.i.i, %sub.ptr.div.i.i.i
  %cmp7.i.i = icmp ult i64 %add.i.i, %sub.ptr.div.i.i.i
  %6 = tail call i64 @llvm.umin.i64(i64 %add.i.i, i64 576460752303423487)
  %cond.i.i = select i1 %cmp7.i.i, i64 576460752303423487, i64 %6
  %cmp.not.i.i1 = icmp eq i64 %cond.i.i, 0
  br i1 %cmp.not.i.i1, label %_ZNSt12_Vector_baseI11MatchRecordSaIS0_EE11_M_allocateEm.exit.i, label %_ZNSt16allocator_traitsISaI11MatchRecordEE8allocateERS1_m.exit.i.i

_ZNSt16allocator_traitsISaI11MatchRecordEE8allocateERS1_m.exit.i.i: ; preds = %_ZNKSt6vectorI11MatchRecordSaIS0_EE12_M_check_lenEmPKc.exit.i
  %mul.i.i.i.i = shl nuw nsw i64 %cond.i.i, 4
  %call5.i.i.i.i = tail call noalias noundef nonnull ptr @_Znwm(i64 noundef %mul.i.i.i.i) #26
  br label %_ZNSt12_Vector_baseI11MatchRecordSaIS0_EE11_M_allocateEm.exit.i

_ZNSt12_Vector_baseI11MatchRecordSaIS0_EE11_M_allocateEm.exit.i: ; preds = %_ZNSt16allocator_traitsISaI11MatchRecordEE8allocateERS1_m.exit.i.i, %_ZNKSt6vectorI11MatchRecordSaIS0_EE12_M_check_lenEmPKc.exit.i
  %cond.i31.i = phi ptr [ %call5.i.i.i.i, %_ZNSt16allocator_traitsISaI11MatchRecordEE8allocateERS1_m.exit.i.i ], [ null, %_ZNKSt6vectorI11MatchRecordSaIS0_EE12_M_check_lenEmPKc.exit.i ]
  %add.ptr.i = getelementptr inbounds %struct.MatchRecord, ptr %cond.i31.i, i64 %sub.ptr.div.i.i.i
  store i64 %add, ptr %add.ptr.i, align 8
  %ref.tmp.sroa.5.0.add.ptr.i.sroa_idx = getelementptr inbounds i8, ptr %add.ptr.i, i64 8
  store i32 %id, ptr %ref.tmp.sroa.5.0.add.ptr.i.sroa_idx, align 8
  %cmp.not6.i.i.i.i.i = icmp eq ptr %5, %2
  br i1 %cmp.not6.i.i.i.i.i, label %_ZNSt6vectorI11MatchRecordSaIS0_EE11_S_relocateEPS0_S3_S3_RS1_.exit40.i, label %for.body.i.i.i.i.i

for.body.i.i.i.i.i:                               ; preds = %_ZNSt12_Vector_baseI11MatchRecordSaIS0_EE11_M_allocateEm.exit.i, %for.body.i.i.i.i.i
  %__cur.08.i.i.i.i.i = phi ptr [ %incdec.ptr1.i.i.i.i.i, %for.body.i.i.i.i.i ], [ %cond.i31.i, %_ZNSt12_Vector_baseI11MatchRecordSaIS0_EE11_M_allocateEm.exit.i ]
  %__first.addr.07.i.i.i.i.i = phi ptr [ %incdec.ptr.i.i.i.i.i, %for.body.i.i.i.i.i ], [ %5, %_ZNSt12_Vector_baseI11MatchRecordSaIS0_EE11_M_allocateEm.exit.i ]
  tail call void @llvm.memcpy.p0.p0.i64(ptr noundef nonnull align 8 dereferenceable(16) %__cur.08.i.i.i.i.i, ptr noundef nonnull align 8 dereferenceable(16) %__first.addr.07.i.i.i.i.i, i64 16, i1 false), !alias.scope !7
  %incdec.ptr.i.i.i.i.i = getelementptr inbounds i8, ptr %__first.addr.07.i.i.i.i.i, i64 16
  %incdec.ptr1.i.i.i.i.i = getelementptr inbounds i8, ptr %__cur.08.i.i.i.i.i, i64 16
  %cmp.not.i.i.i.i.i = icmp eq ptr %incdec.ptr.i.i.i.i.i, %2
  br i1 %cmp.not.i.i.i.i.i, label %_ZNSt6vectorI11MatchRecordSaIS0_EE11_S_relocateEPS0_S3_S3_RS1_.exit40.i, label %for.body.i.i.i.i.i, !llvm.loop !11

_ZNSt6vectorI11MatchRecordSaIS0_EE11_S_relocateEPS0_S3_S3_RS1_.exit40.i: ; preds = %for.body.i.i.i.i.i, %_ZNSt12_Vector_baseI11MatchRecordSaIS0_EE11_M_allocateEm.exit.i
  %__cur.0.lcssa.i.i.i.i.i = phi ptr [ %cond.i31.i, %_ZNSt12_Vector_baseI11MatchRecordSaIS0_EE11_M_allocateEm.exit.i ], [ %incdec.ptr1.i.i.i.i.i, %for.body.i.i.i.i.i ]
  %incdec.ptr.i = getelementptr i8, ptr %__cur.0.lcssa.i.i.i.i.i, i64 16
  %tobool.not.i.i = icmp eq ptr %5, null
  br i1 %tobool.not.i.i, label %_ZNSt6vectorI11MatchRecordSaIS0_EE17_M_realloc_insertIJS0_EEEvN9__gnu_cxx17__normal_iteratorIPS0_S2_EEDpOT_.exit, label %if.then.i41.i

if.then.i41.i:                                    ; preds = %_ZNSt6vectorI11MatchRecordSaIS0_EE11_S_relocateEPS0_S3_S3_RS1_.exit40.i
  tail call void @_ZdlPv(ptr noundef nonnull %5) #25
  br label %_ZNSt6vectorI11MatchRecordSaIS0_EE17_M_realloc_insertIJS0_EEEvN9__gnu_cxx17__normal_iteratorIPS0_S2_EEDpOT_.exit

_ZNSt6vectorI11MatchRecordSaIS0_EE17_M_realloc_insertIJS0_EEEvN9__gnu_cxx17__normal_iteratorIPS0_S2_EEDpOT_.exit: ; preds = %_ZNSt6vectorI11MatchRecordSaIS0_EE11_S_relocateEPS0_S3_S3_RS1_.exit40.i, %if.then.i41.i
  store ptr %cond.i31.i, ptr %matches, align 8
  store ptr %incdec.ptr.i, ptr %_M_finish.i.i, align 8
  %add.ptr19.i = getelementptr inbounds %struct.MatchRecord, ptr %cond.i31.i, i64 %cond.i.i
  store ptr %add.ptr19.i, ptr %_M_end_of_storage.i.i, align 8
  br label %_ZNSt6vectorI11MatchRecordSaIS0_EE9push_backEOS0_.exit

_ZNSt6vectorI11MatchRecordSaIS0_EE9push_backEOS0_.exit: ; preds = %_ZNSt6vectorI11MatchRecordSaIS0_EE17_M_realloc_insertIJS0_EEEvN9__gnu_cxx17__normal_iteratorIPS0_S2_EEDpOT_.exit, %if.then.i.i
  %7 = load i8, ptr %ctxt, align 8, !range !5, !noundef !6
  %conv = zext nneg i8 %7 to i32
  ret i32 %conv
}